(dp1
S'output'
p2
S"<type 'exceptions.IndentationError'> unindent does not match any outer indentation level (caixa.py, line 290)"
p3
sS'layer'
p4
S'/home/python/web2pyLojinha/applications/lojinha/controllers/caixa.py'
p5
sS'code'
p6
S'# -*- coding: utf-8 -*-\n\n@auth.requires_login()\ndef cliente():\n\t#existe sess\xc3\xa3o aberta?\n\tif not session.venda.codigo: #n\xc3\xa3o\n\t\tuserDiv = UL(LI(STRONG(\'Nome : \'),SPAN(\'\'),_class="list-group-item"),LI(STRONG(\'Celular : \'),SPAN(\'\'),_class="list-group-item"),LI(STRONG(\'E-mail :\'),SPAN(\'\'),_class="list-group-item"),_class="list-group")\n\telse: #sim\n\n\t\t#mostra o div com os novos valores\n\t\tuserDiv = UL(\n\t\t\tLI(STRONG(\'Nome: \'),SPAN(session.venda.nome,_id="nn"),_class="list-group-item"),\n\t\t\tLI(STRONG(\'Celular : \'),SPAN(session.venda.celular),_class="list-group-item"),\n\t\t\tLI(STRONG(\'E-mail : \'),SPAN(session.venda.email),_class="list-group-item"),_class="list-group")\t\n\treturn dict(userDiv=userDiv,codigo=session.venda.codigo)\n\n@auth.requires_login()\ndef clientes_retorno():\n    pattern = \'%\' + request.vars.itens + \'%\' #primeira letra maiusculo\n    selecionado = [row for row in db(db.clientes.nome.like(pattern)).select()] #select no db\n\t#se a session nao existir criar ela\n\n    if not session.venda.codigo:\n\t\tfrom random import*\n\t\tsession.venda.codigo = randint(1000,10000000) \n\t\n\t\t# response.flash = "Codigo da venda : %s"%session.vendaAtual_codigo  \n\n    for s in selecionado:\n    \tsession.venda.nome = s.nome\n    \tsession.venda.celular = s.celular\n    \tsession.venda.email = s.email\n\t\n\t# userDiv = UL(\n\t# \tLI(STRONG(\'Nome : \'),SPAN(session.vendaAtual_nome,_id="nn"),_class="list-group-item"),\n\t# \tLI(STRONG(\'Celular : \'),SPAN(session.vendaAtual_celuar),_class="list-group-item"),\n\t# \tLI(STRONG(\'E-mail : \'),SPAN(session.vendaAtual_email),_class="list-group-item"),_class="list-group")\n\n    return dict()\n\n@auth.requires_login()\ndef produto():\n\treturn dict(tb=session.venda.itens)\n\n@auth.requires_login()\ndef caixa():\t\n\tlistaCompras = session.venda.itens \n\treturn dict(l=listaCompras)\n\n@auth.requires_login()\ndef addProdutoAjax():\n\t\n\tif not session.venda.sTotal:\n\t    session.venda.total = 0 \n\n\tcodigo = request.vars.codigo\n\tproduto = request.vars.produto\n\tqtde = request.vars.qtde\n\n\n\t#buscar valor do item\n\tvalorItem = db(db.produtos.codigo_produto == codigo).select("preco_produto_lojinha")[0]._extra[\'preco_produto_lojinha\']\n\t\n  \tvalorTotal = int(qtde)*float(valorItem)\n  \tsession.venda.sTotal = float(session.venda.sTotal)+float(valorTotal)\n\t# soma valorItem com a qtde\n\n\t\t\n\titensVendaTable = session.venda.itens                              \n\titensVendaTable.insert(0, TR(TD(codigo),TD(qtde),TD(produto),TD("R$ %.2f"%valorItem),TD("R$ %.2f"%valorTotal),TD(A(SPAN(_class="glyphicon glyphicon-remove"), _class="btn btn-default fechar Jview btn-xs", _href="#"),_class="btD")))\n\tsession.venda.itens = itensVendaTable\n\n\treturn dict()\n\n@auth.requires_login()\ndef delItemProduto():\n    index = request.vars.delIndex\n    index = index.split(";")\n    session.venda.itens.__delitem__(int(index[0]))\n    session.venda.sTotal = float(session.venda.sTotal) - float(index[1]) #subtra\xc3\xa7\xc3\xa3o do valor dos itens\n\n    return dict()\n\n@auth.requires_login()\ndef fecharVenda():\n\tindex = request.vars.transitory\n\tindex = index.split(";")\n\n\t# dados a gravar no db\n\tcodigoVenda = session.venda.codigo\n\tclienteEmail = session.venda.email\n\ttipoVenda = index[0]\n\tvalorVenda = index[1]\n\tvalorDesconto = index[2]\n\tvendedor = session.auth.user.email\n\titensVenda = session.venda.itens\n\n\tif valorDesconto == \'\':\n\t\tvalorDesconto = \'0.00\'\n\t\tpass\n\n\t#---- GUARDAR VENDA NO DB\n\tdb.historicoVendas.insert(\n\t\tcodigoVenda = codigoVenda,\n\t\tclienteEmail = clienteEmail,\n\t\ttipoVenda = tipoVenda,\n\t\tvalorVenda = valorVenda,\n\t\tvalorDesconto = valorDesconto,  \n\t\tvendedor = vendedor,\n\t\titensVenda = itensVenda \n\t\t)\n\tdb.commit()\n\t\n\tviewDesc = "";\n\tif valorDesconto != "0.00":\n\t\tvalorT = (float(valorVenda) + float(valorDesconto))\n\t\tviewDesc = "<h3><b>Total</b> : R$ %.2f - <b>Desconto</b> : <span>R$ %.2f</span></h3>"%(valorT, float(valorDesconto))\n\t\t\n\t# comprovante do email para impressao\n\tdiv = XML(\n\t\t\t"<div style=\'text-align:center;display:none\' class=\'logoP\'>"+\n\t\t\t\t"<img src=\'https://dl.dropboxusercontent.com/u/11469395/Nallu.paiva/logoPrint.png\' width=\'95pt\'><hr>" +\n\t\t\t"</div>"+\n\t\t\t"<h3>Recibo de compra Nallubaby ( codigo : %s )</h3><br>"%session.venda.codigo +\t\t\n\t\t"<div id=\'retornoCliente\'>" +\n\t\t\t"<ul class=\'list-group\'>" +\n\t\t\t\t"<li class=\'list-group-item\'><strong>Cliente: </strong><span id=\'nn\'>%s</span></li>"%session.venda.nome +\n\t\t\t\t"<li class=\'list-group-item\'><strong>Celular : </strong><span>%s</span></li>"%session.venda.celular +\n\t\t\t\t"<li class=\'list-group-item\'><strong>E-mail : </strong><span>%s</span></li>"%session.venda.email +\n\t\t\t"</ul> "  +\n\t\t"</div>" +\n\t\t\t"<div class=\'table-responsive\'>"+\n\t\t\t\t"<table class=\'table table-bordered\'>"+\n\t\t\t\t\t"<thead>"+\n\t\t\t\t\t\t"<tr>"+\n\t\t\t\t\t\t\t"<th>C\xc3\xb3digo</th>"+\n\t\t\t\t\t\t\t"<th>Qtde</th>"+\n\t\t\t\t\t\t\t"<th>Produto</th>"+\n\t\t\t\t\t\t\t"<th>Valor Unidade</th>"+\n\t\t\t\t\t\t\t"<th>Valor Total</th>"+\n\t\t\t\t\t\t"</tr>"+\n\t\t\t\t\t"</thead>"+\n\t\t\t\t\t"<tbody id=\'bodyPrint\'>%s</tbody>"%itensVenda +\n\t\t\t\t"</table>"+\n\t\t\t\t"%s"%viewDesc +\n\t\t\t\t"<h3><b>SUB-TOTAL</b> = R$ %.2f  |  <b>Tipo pagamento</b> : %s </h3>"%(float(valorVenda), tipoVenda) + \n\t\t\t"</div>"  +\t\n\t\t\t"<hr>" +\n\t\t\t"<a href=\'cliente?menu=caixa\' class=\'btn btn-default btVolt\'>Voltar</a>" +\n\t\t\t"<a href=\'javascript:window.print()\' class=\'btn btn-info btPrint\'>imprimir</a>" \n\t\t\t# "<nav>" +\n\t\t\t#   "<ul class=\'pager\' style=\'%s\'>"%\'width:100px\' +\n\t\t\t#     "<li class=\'previous\'><a href=\'cliente?menu=caixa\'><span aria-hidden=\'true\'>&larr;</span> voltar</a></li> "+\n\t\t\t#   "</ul>" +\n\t\t\t# "</nav>"\n\t\t)\n\t\n\t# comprovante do email sem html\n\titensNew = itensVenda\n\titensNew = itensNew\n\temailSimples = "|---------------- RECIBO DE COMPRA ----------------|\\n"\\\n\t" ### ESSE DISPOSITIVO NAO E POSSIVEL VISUALIZAR OS DADOS ###\\n"\\\n\t" ### Por gentileza visualize no seu email."\n\n\n\t# comprovante do email com html\n\temailHTML = "<html><body>"\\\n\t\t"<div class=\'gl\'"\\\n\t\t\t"<div style=\'text-align:center\'>"\\\n\t\t\t\t"<img src=\'https://dl.dropboxusercontent.com/u/11469395/Nallu.paiva/logoPrint.png\' width=\'95pt\'><hr>" \\\n\t\t\t"</div>"\\\n\t\t\t"<h3>Recibo de compra Nallubaby ( codigo : %s )</h3>" \\\n\t\t\t"<div>"\\\n\t\t\t\t"<table id=\'myT\' style=\'width:%s\'>"\\\n\t\t\t\t\t"<thead>"\\\n\t\t\t\t\t\t"<tr>"\\\n\t\t\t\t\t\t\t"<th>C\xc3\xb3digo</th>"\\\n\t\t\t\t\t\t\t"<th>Qtde</th>"\\\n\t\t\t\t\t\t\t"<th>Produto</th>"\\\n\t\t\t\t\t\t\t"<th>Valor Unidade</th>"\\\n\t\t\t\t\t\t\t"<th>Valor Total</th>"\\\n\t\t\t\t\t\t"</tr>"\\\n\t\t\t\t\t"</thead>"\\\n\t\t\t\t\t"<tbody>%s</tbody>" \\\n\t\t\t\t"</table>"\\\n\t\t\t\t"%s" \\\n\t\t\t\t"<h3><b>SUB-TOTAL</b> = R$ %.2f  |  <b>Tipo pagamento</b> : %s </h3>" \\\n\t\t\t"</div><hr>" \\\n\t\t\t"<h3>Muito Obrigado pela compra! Volte sempre."\\\n\t\t"</div></body></html>"\\\n\t\t"<style> .btD{display:none} </style>"%(session.venda.codigo,\'100%\',itensVenda,viewDesc,float(valorVenda),tipoVenda)\t\n\t\t\n\n\t#---- ENVIAR COMPROVANTE AO CLIENTE\n\tif mail:\n\t    if mail.send(to=["%s"%session.venda.email],\n\t        subject=\'Recibo de compra Nallubaby Cod:\',\n\t        # message= "Hello this is an email send from minerva.com from contact us form.\\nName:"+ session.name+" \\nEmail : " + session.email +"\\nSubject : "+session.subject +"\\nMessage : "+session.message+ ".\\n "\n\t    \tmessage=[emailSimples, emailHTML]\n\t    ):\n\t        response.flash = \'Recibo enviado por email ao cliente!.\'\n\t    else:\n\t        response.flash = \'Problema ao enviars o email!\'\n\telse:\n\t    response.flash = \'Unable to send the email : email parameters not defined\'\n\t\n\t#---- LIMPAR STORAGE\n\tsession.__delitem__(\'venda\')\n\n\treturn div\t\t\n\t\n@auth.requires_membership(\'admin\')\ndef historico():\n\treturn dict(formListar=db(db.historicoVendas.id>0).select())\n\ndef buscarVenda():\n\t#codigo de busca\n\tbusca = request.vars.transitory\n\tvenda = db(db.historicoVendas.codigoVenda == busca).select()\n\n\n\t# dados pego no db\n\tcodigoVenda = busca\n\ttipoVenda = venda[0].tipoVenda\n\tvalorVenda = venda[0].valorVenda\t\n\tvalorDesconto = venda[0].valorDesconto\n\tvendedor = venda[0].vendedor\n\titensVenda =  venda[0].itensVenda\n\n\t\t\n\tviewDesc = "";\n\tif valorDesconto != "":\n\t\tvalorT = (float(valorVenda) + float(valorDesconto))\n\t\tviewDesc = "<h3><b>Total</b> : R$ %.2f - <b>Desconto</b> : <span>R$ %.2f</span></h3>"%(valorT, float(valorDesconto))\n\n\n\t# comprovante do email para impressao\n\tdiv = XML(\n\t\t"<div class=\'animated fadeIn\'>"\n\t\t\t"<div style=\'text-align:center;display:none\' class=\'logoP\'>"+\n\t\t\t\t"<img src=\'https://dl.dropboxusercontent.com/u/11469395/Nallu.paiva/logoPrint.png\' width=\'95pt\'><hr>" +\n\t\t\t"</div>"+\n\t\t\t"<h3>Recibo de compra Nallubaby ( codigo : %s )</h3><br>"%codigoVenda +\t\t\n\t\t"<div id=\'retornoCliente\'>" +\n\t\t\t"<ul class=\'list-group\'>" +\n\t\t\t\t"<li class=\'list-group-item\'><strong>Cliente: </strong><span id=\'nn\'>Jose</span></li>" +\n\t\t\t\t"<li class=\'list-group-item\'><strong>Celular : </strong><span>(55) 55555-5555</span></li>" +\n\t\t\t\t"<li class=\'list-group-item\'><strong>E-mail : </strong><span>jose@gmail.com</span></li>" +\n\t\t\t"</ul> "  +\n\t\t"</div>" +\n\t\t\t"<div class=\'table-responsive\'>"+\n\t\t\t\t"<table class=\'table table-bordered\'>"+\n\t\t\t\t\t"<thead>"+\n\t\t\t\t\t\t"<tr>"+\n\t\t\t\t\t\t\t"<th>C\xc3\xb3digo</th>"+\n\t\t\t\t\t\t\t"<th>Qtde</th>"+\n\t\t\t\t\t\t\t"<th>Produto</th>"+\n\t\t\t\t\t\t\t"<th>Valor Unidade</th>"+\n\t\t\t\t\t\t\t"<th>Valor Total</th>"+\n\t\t\t\t\t\t"</tr>"+\n\t\t\t\t\t"</thead>"+\n\t\t\t\t\t"<tbody id=\'bodyPrint\'>%s</tbody>"%itensVenda +\n\t\t\t\t"</table>"+\n\t\t\t\t"%s"%viewDesc +\n\t\t\t\t"<h3><b>SUB-TOTAL</b> = R$ %.2f  |  <b>Tipo pagamento</b> : %s </h3>"%(float(valorVenda), tipoVenda) + \n\t\t\t"</div>"  +\t\n\t\t\t"<hr>" +\n\t\t\t"<a href=\'historico?menu=caixa\' class=\'btn btn-default btVolt\'>Voltar</a>" +\n\t\t\t"<a href=\'javascript:window.print()\' class=\'btn btn-info btPrint\'>imprimir</a>" +\n\t\t\t"</div>"\n\t\t\t# "<nav>" +\n\t\t\t#   "<ul class=\'pager\' style=\'%s\'>"%\'width:100px\' +\n\t\t\t#     "<li class=\'previous\'><a href=\'cliente?menu=caixa\'><span aria-hidden=\'true\'>&larr;</span> voltar</a></li> "+\n\t\t\t#   "</ul>" +\n\t\t\t# "</nav>"\n\n\t\t)\n\treturn div\t\n\n\ndef cancelarVenda():\t\n\t#---- LIMPAR STORAGE\n\tsession.__delitem__(\'venda\')\n\treturn \'\'\n\n\ndef excluirVendaRegistrada():\n\tindex = request.vars.transitory\n\tidd = index.split(";")[0]\n    crud.delete(db.historicoVendas, idd)\n\treturn \'\'\nresponse._vars=response._caller(historico)\n'
p7
sS'snapshot'
p8
(dp9
S'exception'
p10
(dp11
S'__getslice__'
p12
S"<method-wrapper '__getslice__' of exceptions.IndentationError object>"
p13
sS'text'
p14
S"'    crud.delete(db.historicoVendas, idd)\\n'"
p15
sS'__str__'
p16
S"<method-wrapper '__str__' of exceptions.IndentationError object>"
p17
sS'__reduce__'
p18
S'<built-in method __reduce__ of exceptions.IndentationError object>'
p19
sS'__dict__'
p20
S'{}'
p21
sS'__sizeof__'
p22
S'<built-in method __sizeof__ of exceptions.IndentationError object>'
p23
sS'__init__'
p24
S"<method-wrapper '__init__' of exceptions.IndentationError object>"
p25
sS'__setattr__'
p26
S"<method-wrapper '__setattr__' of exceptions.IndentationError object>"
p27
sS'__reduce_ex__'
p28
S'<built-in method __reduce_ex__ of exceptions.IndentationError object>'
p29
sS'__new__'
p30
S'<built-in method __new__ of type object>'
p31
sS'__format__'
p32
S'<built-in method __format__ of exceptions.IndentationError object>'
p33
sS'__class__'
p34
S"<type 'exceptions.IndentationError'>"
p35
sS'filename'
p36
S"'/home/python/web2pyLojinha/applications/lojinha/controllers/caixa.py'"
p37
sS'lineno'
p38
S'290'
p39
sS'msg'
p40
S"'unindent does not match any outer indentation level'"
p41
sS'__doc__'
p42
S"'Improper indentation.'"
p43
sS'__getitem__'
p44
S"<method-wrapper '__getitem__' of exceptions.IndentationError object>"
p45
sS'__setstate__'
p46
S'<built-in method __setstate__ of exceptions.IndentationError object>'
p47
sS'__getattribute__'
p48
S"<method-wrapper '__getattribute__' of exceptions.IndentationError object>"
p49
sS'print_file_and_line'
p50
S'None'
p51
sS'args'
p52
S"('unindent does not match any outer indentation level', ('/home/python/web2pyLojinha/applications/lojinha/controllers/caixa.py', 290, 41, '    crud.delete(db.historicoVendas, idd)\\n'))"
p53
sS'__subclasshook__'
p54
S'<built-in method __subclasshook__ of type object>'
p55
sS'offset'
p56
S'41'
p57
sS'__unicode__'
p58
S'<built-in method __unicode__ of exceptions.IndentationError object>'
p59
sS'__delattr__'
p60
S"<method-wrapper '__delattr__' of exceptions.IndentationError object>"
p61
sS'__repr__'
p62
S"<method-wrapper '__repr__' of exceptions.IndentationError object>"
p63
sS'__hash__'
p64
S"<method-wrapper '__hash__' of exceptions.IndentationError object>"
p65
ssS'evalue'
p66
S'unindent does not match any outer indentation level (caixa.py, line 290)'
p67
sS'request'
p68
cgluon.html
XML_unpickle
p69
(S's\xe4W\x00\x00<div><table><tr><td style="font-weight:bold;vertical-align:top;">ajax</td><td style="vertical-align:top;">:</td><td><div>False</div></td></tr><tr><td style="font-weight:bold;vertical-align:top;">application</td><td style="vertical-align:top;">:</td><td><div>lojinha</div></td></tr><tr><td style="font-weight:bold;vertical-align:top;">args</td><td style="vertical-align:top;">:</td><td><div><table></table></div></td></tr><tr><td style="font-weight:bold;vertical-align:top;">cid</td><td style="vertical-align:top;">:</td><td><div>None</div></td></tr><tr><td style="font-weight:bold;vertical-align:top;">client</td><td style="vertical-align:top;">:</td><td><div>127.0.0.1</div></td></tr><tr><td style="font-weight:bold;vertical-align:top;">controller</td><td style="vertical-align:top;">:</td><td><div>caixa</div></td></tr><tr><td style="font-weight:bold;vertical-align:top;">cookies</td><td style="vertical-align:top;">:</td><td><div><table><tr><td style="font-weight:bold;vertical-align:top;">session_id_admin</td><td style="vertical-align:top;">:</td><td><div>127.0.0.1-68188831-3992-4a17-a01e-5c92e9c87fda<table><tr><td style="font-weight:bold;vertical-align:top;">comment</td><td style="vertical-align:top;">:</td><td><div></div></td></tr><tr><td style="font-weight:bold;vertical-align:top;">domain</td><td style="vertical-align:top;">:</td><td><div></div></td></tr><tr><td style="font-weight:bold;vertical-align:top;">expires</td><td style="vertical-align:top;">:</td><td><div></div></td></tr><tr><td style="font-weight:bold;vertical-align:top;">httponly</td><td style="vertical-align:top;">:</td><td><div></div></td></tr><tr><td style="font-weight:bold;vertical-align:top;">max-age</td><td style="vertical-align:top;">:</td><td><div></div></td></tr><tr><td style="font-weight:bold;vertical-align:top;">path</td><td style="vertical-align:top;">:</td><td><div></div></td></tr><tr><td style="font-weight:bold;vertical-align:top;">secure</td><td style="vertical-align:top;">:</td><td><div></div></td></tr><tr><td style="font-weight:bold;vertical-align:top;">version</td><td style="vertical-align:top;">:</td><td><div></div></td></tr></table></div></td></tr><tr><td style="font-weight:bold;vertical-align:top;">session_id_lojinha</td><td style="vertical-align:top;">:</td><td><div>127.0.0.1-558bcae4-9a83-4c11-968d-fef8ed0cc12a<table><tr><td style="font-weight:bold;vertical-align:top;">comment</td><td style="vertical-align:top;">:</td><td><div></div></td></tr><tr><td style="font-weight:bold;vertical-align:top;">domain</td><td style="vertical-align:top;">:</td><td><div></div></td></tr><tr><td style="font-weight:bold;vertical-align:top;">expires</td><td style="vertical-align:top;">:</td><td><div></div></td></tr><tr><td style="font-weight:bold;vertical-align:top;">httponly</td><td style="vertical-align:top;">:</td><td><div></div></td></tr><tr><td style="font-weight:bold;vertical-align:top;">max-age</td><td style="vertical-align:top;">:</td><td><div></div></td></tr><tr><td style="font-weight:bold;vertical-align:top;">path</td><td style="vertical-align:top;">:</td><td><div></div></td></tr><tr><td style="font-weight:bold;vertical-align:top;">secure</td><td style="vertical-align:top;">:</td><td><div></div></td></tr><tr><td style="font-weight:bold;vertical-align:top;">version</td><td style="vertical-align:top;">:</td><td><div></div></td></tr></table></div></td></tr></table></div></td></tr><tr><td style="font-weight:bold;vertical-align:top;">env</td><td style="vertical-align:top;">:</td><td><div><table><tr><td style="font-weight:bold;vertical-align:top;">HTTP_ACCEPT</td><td style="vertical-align:top;">:</td><td><div>text/html,application/xhtml+xml,application/xml;q=0.9,image/webp,*/*;q=0.8</div></td></tr><tr><td style="font-weight:bold;vertical-align:top;">HTTP_ACCEPT_ENCODING</td><td style="vertical-align:top;">:</td><td><div>gzip, deflate, sdch</div></td></tr><tr><td style="font-weight:bold;vertical-align:top;">HTTP_ACCEPT_LANGUAGE</td><td style="vertical-align:top;">:</td><td><div>pt-BR,pt;q=0.8,en-US;q=0.6,en;q=0.4</div></td></tr><tr><td style="font-weight:bold;vertical-align:top;">HTTP_CACHE_CONTROL</td><td style="vertical-align:top;">:</td><td><div>max-age=0</div></td></tr><tr><td style="font-weight:bold;vertical-align:top;">HTTP_CONNECTION</td><td style="vertical-align:top;">:</td><td><div>keep-alive</div></td></tr><tr><td style="font-weight:bold;vertical-align:top;">HTTP_COOKIE</td><td style="vertical-align:top;">:</td><td><div>session_id_admin=127.0.0.1-68188831-3992-4a17-a01e-5c92e9c87fda; session_id_lojinha=127.0.0.1-558bcae4-9a83-4c11-968d-fef8ed0cc12a</div></td></tr><tr><td style="font-weight:bold;vertical-align:top;">HTTP_HOST</td><td style="vertical-align:top;">:</td><td><div>localhost:8055</div></td></tr><tr><td style="font-weight:bold;vertical-align:top;">HTTP_REFERER</td><td style="vertical-align:top;">:</td><td><div>http://localhost:8055/lojinha/caixa/historico?menu=caixa</div></td></tr><tr><td style="font-weight:bold;vertical-align:top;">HTTP_UPGRADE_INSECURE_REQUESTS</td><td style="vertical-align:top;">:</td><td><div>1</div></td></tr><tr><td style="font-weight:bold;vertical-align:top;">HTTP_USER_AGENT</td><td style="vertical-align:top;">:</td><td><div>Mozilla/5.0 (X11; Linux x86_64) AppleWebKit/537.36 (KHTML, like Gecko) Chrome/45.0.2454.85 Safari/537.36</div></td></tr><tr><td style="font-weight:bold;vertical-align:top;">PATH_INFO</td><td style="vertical-align:top;">:</td><td><div>/lojinha/caixa/historico</div></td></tr><tr><td style="font-weight:bold;vertical-align:top;">QUERY_STRING</td><td style="vertical-align:top;">:</td><td><div>menu=caixa</div></td></tr><tr><td style="font-weight:bold;vertical-align:top;">REMOTE_ADDR</td><td style="vertical-align:top;">:</td><td><div>127.0.0.1</div></td></tr><tr><td style="font-weight:bold;vertical-align:top;">REMOTE_PORT</td><td style="vertical-align:top;">:</td><td><div>57160</div></td></tr><tr><td style="font-weight:bold;vertical-align:top;">REQUEST_METHOD</td><td style="vertical-align:top;">:</td><td><div>GET</div></td></tr><tr><td style="font-weight:bold;vertical-align:top;">SCRIPT_NAME</td><td style="vertical-align:top;">:</td><td><div></div></td></tr><tr><td style="font-weight:bold;vertical-align:top;">SERVER_NAME</td><td style="vertical-align:top;">:</td><td><div>web2py</div></td></tr><tr><td style="font-weight:bold;vertical-align:top;">SERVER_PORT</td><td style="vertical-align:top;">:</td><td><div>8055</div></td></tr><tr><td style="font-weight:bold;vertical-align:top;">SERVER_PROTOCOL</td><td style="vertical-align:top;">:</td><td><div>HTTP/1.1</div></td></tr><tr><td style="font-weight:bold;vertical-align:top;">SERVER_SOFTWARE</td><td style="vertical-align:top;">:</td><td><div>Rocket 1.2.6</div></td></tr><tr><td style="font-weight:bold;vertical-align:top;">app_folders</td><td style="vertical-align:top;">:</td><td><div>set([&#x27;/home/python/web2pyLojinha/applications/lojinha/&#x27;])</div></td></tr><tr><td style="font-weight:bold;vertical-align:top;">applications_parent</td><td style="vertical-align:top;">:</td><td><div>/home/python/web2pyLojinha</div></td></tr><tr><td style="font-weight:bold;vertical-align:top;">cmd_args</td><td style="vertical-align:top;">:</td><td><div><table></table></div></td></tr><tr><td style="font-weight:bold;vertical-align:top;">cmd_options</td><td style="vertical-align:top;">:</td><td><div>&lt;Values at 0x7f0c61db1b90: {&#x27;verbose&#x27;: False, &#x27;ip&#x27;: &#x27;127.0.0.1&#x27;, &#x27;debuglevel&#x27;: 30, &#x27;with_scheduler&#x27;: False, &#x27;ips&#x27;: [&#x27;127.0.1.1&#x27;], &#x27;shutdown_timeout&#x27;: 5, &#x27;taskbar&#x27;: False, &#x27;with_coverage&#x27;: False, &#x27;scheduler_groups&#x27;: None, &#x27;port&#x27;: 8055, &#x27;maxthreads&#x27;: None, &#x27;softcron&#x27;: False, &#x27;server_name&#x27;: &#x27;web2py&#x27;, &#x27;bpython&#x27;: False, &#x27;nogui&#x27;: False, &#x27;pid_filename&#x27;: &#x27;httpserver.pid&#x27;, &#x27;print_errors&#x27;: False, &#x27;extcron&#x27;: False, &#x27;runcron&#x27;: False, &#x27;run_system_tests&#x27;: False, &#x27;test&#x27;: None, &#x27;folder&#x27;: &#x27;/home/python/web2pyLojinha&#x27;, &#x27;config&#x27;: &#x27;&#x27;, &#x27;minthreads&#x27;: None, &#x27;shell&#x27;: None, &#x27;run&#x27;: &#x27;&#x27;, &#x27;log_filename&#x27;: &#x27;httpserver.log&#x27;, &#x27;profiler_dir&#x27;: None, &#x27;args&#x27;: [&#x27;&#x27;], &#x27;socket_timeout&#x27;: 5, &#x27;ssl_ca_certificate&#x27;: None, &#x27;scheduler&#x27;: None, &#x27;interfaces&#x27;: None, &#x27;ssl_private_key&#x27;: &#x27;&#x27;, &#x27;gae&#x27;: None, &#x27;password&#x27;: &#x27;123&#x27;, &#x27;request_queue_size&#x27;: 5, &#x27;ssl_certificate&#x27;: &#x27;&#x27;, &#x27;cronjob&#x27;: False, &#x27;numthreads&#x27;: None, &#x27;quiet&#x27;: False, &#x27;import_models&#x27;: False, &#x27;timeout&#x27;: 10, &#x27;plain&#x27;: False, &#x27;nobanner&#x27;: False}&gt;</div></td></tr><tr><td style="font-weight:bold;vertical-align:top;">db_sessions</td><td style="vertical-align:top;">:</td><td><div>set([])</div></td></tr><tr><td style="font-weight:bold;vertical-align:top;">debugging</td><td style="vertical-align:top;">:</td><td><div>False</div></td></tr><tr><td style="font-weight:bold;vertical-align:top;">gluon_parent</td><td style="vertical-align:top;">:</td><td><div>/home/python/web2pyLojinha</div></td></tr><tr><td style="font-weight:bold;vertical-align:top;">http_accept</td><td style="vertical-align:top;">:</td><td><div>text/html,application/xhtml+xml,application/xml;q=0.9,image/webp,*/*;q=0.8</div></td></tr><tr><td style="font-weight:bold;vertical-align:top;">http_accept_encoding</td><td style="vertical-align:top;">:</td><td><div>gzip, deflate, sdch</div></td></tr><tr><td style="font-weight:bold;vertical-align:top;">http_accept_language</td><td style="vertical-align:top;">:</td><td><div>pt-BR,pt;q=0.8,en-US;q=0.6,en;q=0.4</div></td></tr><tr><td style="font-weight:bold;vertical-align:top;">http_cache_control</td><td style="vertical-align:top;">:</td><td><div>max-age=0</div></td></tr><tr><td style="font-weight:bold;vertical-align:top;">http_connection</td><td style="vertical-align:top;">:</td><td><div>keep-alive</div></td></tr><tr><td style="font-weight:bold;vertical-align:top;">http_cookie</td><td style="vertical-align:top;">:</td><td><div>session_id_admin=127.0.0.1-68188831-3992-4a17-a01e-5c92e9c87fda; session_id_lojinha=127.0.0.1-558bcae4-9a83-4c11-968d-fef8ed0cc12a</div></td></tr><tr><td style="font-weight:bold;vertical-align:top;">http_host</td><td style="vertical-align:top;">:</td><td><div>localhost:8055</div></td></tr><tr><td style="font-weight:bold;vertical-align:top;">http_referer</td><td style="vertical-align:top;">:</td><td><div>http://localhost:8055/lojinha/caixa/historico?menu=caixa</div></td></tr><tr><td style="font-weight:bold;vertical-align:top;">http_upgrade_insecure_requests</td><td style="vertical-align:top;">:</td><td><div>1</div></td></tr><tr><td style="font-weight:bold;vertical-align:top;">http_user_agent</td><td style="vertical-align:top;">:</td><td><div>Mozilla/5.0 (X11; Linux x86_64) AppleWebKit/537.36 (KHTML, like Gecko) Chrome/45.0.2454.85 Safari/537.36</div></td></tr><tr><td style="font-weight:bold;vertical-align:top;">is_jython</td><td style="vertical-align:top;">:</td><td><div>False</div></td></tr><tr><td style="font-weight:bold;vertical-align:top;">is_pypy</td><td style="vertical-align:top;">:</td><td><div>False</div></td></tr><tr><td style="font-weight:bold;vertical-align:top;">is_source</td><td style="vertical-align:top;">:</td><td><div>True</div></td></tr><tr><td style="font-weight:bold;vertical-align:top;">local_hosts</td><td style="vertical-align:top;">:</td><td><div><table><tr><td><div>127.0.1.1</div></td></tr><tr><td><div>::1</div></td></tr><tr><td><div>web2py</div></td></tr><tr><td><div>::ffff:127.0.0.1</div></td></tr><tr><td><div>127.0.0.1</div></td></tr></table></div></td></tr><tr><td style="font-weight:bold;vertical-align:top;">path_info</td><td style="vertical-align:top;">:</td><td><div>/lojinha/caixa/historico</div></td></tr><tr><td style="font-weight:bold;vertical-align:top;">query_string</td><td style="vertical-align:top;">:</td><td><div>menu=caixa</div></td></tr><tr><td style="font-weight:bold;vertical-align:top;">remote_addr</td><td style="vertical-align:top;">:</td><td><div>127.0.0.1</div></td></tr><tr><td style="font-weight:bold;vertical-align:top;">remote_port</td><td style="vertical-align:top;">:</td><td><div>57160</div></td></tr><tr><td style="font-weight:bold;vertical-align:top;">request_method</td><td style="vertical-align:top;">:</td><td><div>GET</div></td></tr><tr><td style="font-weight:bold;vertical-align:top;">request_uri</td><td style="vertical-align:top;">:</td><td><div>/lojinha/caixa/historico?menu=caixa</div></td></tr><tr><td style="font-weight:bold;vertical-align:top;">script_name</td><td style="vertical-align:top;">:</td><td><div></div></td></tr><tr><td style="font-weight:bold;vertical-align:top;">server_name</td><td style="vertical-align:top;">:</td><td><div>web2py</div></td></tr><tr><td style="font-weight:bold;vertical-align:top;">server_port</td><td style="vertical-align:top;">:</td><td><div>8055</div></td></tr><tr><td style="font-weight:bold;vertical-align:top;">server_protocol</td><td style="vertical-align:top;">:</td><td><div>HTTP/1.1</div></td></tr><tr><td style="font-weight:bold;vertical-align:top;">server_software</td><td style="vertical-align:top;">:</td><td><div>Rocket 1.2.6</div></td></tr><tr><td style="font-weight:bold;vertical-align:top;">web2py_original_uri</td><td style="vertical-align:top;">:</td><td><div>/lojinha/caixa/historico?menu=caixa</div></td></tr><tr><td style="font-weight:bold;vertical-align:top;">web2py_path</td><td style="vertical-align:top;">:</td><td><div>/home/python/web2pyLojinha</div></td></tr><tr><td style="font-weight:bold;vertical-align:top;">web2py_version</td><td style="vertical-align:top;">:</td><td><div>2.12.3-stable+timestamp.2015.08.19.00.18.03</div></td></tr><tr><td style="font-weight:bold;vertical-align:top;">wsgi.errors</td><td style="vertical-align:top;">:</td><td><div>&lt;open file &#x27;&lt;stderr&gt;&#x27;, mode &#x27;w&#x27; at 0x7f0c668cc1e0&gt;</div></td></tr><tr><td style="font-weight:bold;vertical-align:top;">wsgi.file_wrapper</td><td style="vertical-align:top;">:</td><td><div>&lt;class wsgiref.util.FileWrapper at 0x7f0c61d9f258&gt;</div></td></tr><tr><td style="font-weight:bold;vertical-align:top;">wsgi.input</td><td style="vertical-align:top;">:</td><td><div>&lt;socket._fileobject object at 0x7f0c61e9ea50&gt;</div></td></tr><tr><td style="font-weight:bold;vertical-align:top;">wsgi.multiprocess</td><td style="vertical-align:top;">:</td><td><div>False</div></td></tr><tr><td style="font-weight:bold;vertical-align:top;">wsgi.multithread</td><td style="vertical-align:top;">:</td><td><div>True</div></td></tr><tr><td style="font-weight:bold;vertical-align:top;">wsgi.run_once</td><td style="vertical-align:top;">:</td><td><div>False</div></td></tr><tr><td style="font-weight:bold;vertical-align:top;">wsgi.url_scheme</td><td style="vertical-align:top;">:</td><td><div>http</div></td></tr><tr><td style="font-weight:bold;vertical-align:top;">wsgi.version</td><td style="vertical-align:top;">:</td><td><div><table><tr><td><div>1</div></td></tr><tr><td><div>0</div></td></tr></table></div></td></tr><tr><td style="font-weight:bold;vertical-align:top;">wsgi_errors</td><td style="vertical-align:top;">:</td><td><div>&lt;open file &#x27;&lt;stderr&gt;&#x27;, mode &#x27;w&#x27; at 0x7f0c668cc1e0&gt;</div></td></tr><tr><td style="font-weight:bold;vertical-align:top;">wsgi_file_wrapper</td><td style="vertical-align:top;">:</td><td><div>&lt;class wsgiref.util.FileWrapper at 0x7f0c61d9f258&gt;</div></td></tr><tr><td style="font-weight:bold;vertical-align:top;">wsgi_input</td><td style="vertical-align:top;">:</td><td><div>&lt;socket._fileobject object at 0x7f0c61e9ea50&gt;</div></td></tr><tr><td style="font-weight:bold;vertical-align:top;">wsgi_multiprocess</td><td style="vertical-align:top;">:</td><td><div>False</div></td></tr><tr><td style="font-weight:bold;vertical-align:top;">wsgi_multithread</td><td style="vertical-align:top;">:</td><td><div>True</div></td></tr><tr><td style="font-weight:bold;vertical-align:top;">wsgi_run_once</td><td style="vertical-align:top;">:</td><td><div>False</div></td></tr><tr><td style="font-weight:bold;vertical-align:top;">wsgi_url_scheme</td><td style="vertical-align:top;">:</td><td><div>http</div></td></tr><tr><td style="font-weight:bold;vertical-align:top;">wsgi_version</td><td style="vertical-align:top;">:</td><td><div><table><tr><td><div>1</div></td></tr><tr><td><div>0</div></td></tr></table></div></td></tr></table></div></td></tr><tr><td style="font-weight:bold;vertical-align:top;">extension</td><td style="vertical-align:top;">:</td><td><div>html</div></td></tr><tr><td style="font-weight:bold;vertical-align:top;">folder</td><td style="vertical-align:top;">:</td><td><div>/home/python/web2pyLojinha/applications/lojinha/</div></td></tr><tr><td style="font-weight:bold;vertical-align:top;">function</td><td style="vertical-align:top;">:</td><td><div>historico</div></td></tr><tr><td style="font-weight:bold;vertical-align:top;">global_settings</td><td style="vertical-align:top;">:</td><td><div><table><tr><td style="font-weight:bold;vertical-align:top;">app_folders</td><td style="vertical-align:top;">:</td><td><div>set([&#x27;/home/python/web2pyLojinha/applications/lojinha/&#x27;])</div></td></tr><tr><td style="font-weight:bold;vertical-align:top;">applications_parent</td><td style="vertical-align:top;">:</td><td><div>/home/python/web2pyLojinha</div></td></tr><tr><td style="font-weight:bold;vertical-align:top;">cmd_args</td><td style="vertical-align:top;">:</td><td><div><table></table></div></td></tr><tr><td style="font-weight:bold;vertical-align:top;">cmd_options</td><td style="vertical-align:top;">:</td><td><div>&lt;Values at 0x7f0c61db1b90: {&#x27;verbose&#x27;: False, &#x27;ip&#x27;: &#x27;127.0.0.1&#x27;, &#x27;debuglevel&#x27;: 30, &#x27;with_scheduler&#x27;: False, &#x27;ips&#x27;: [&#x27;127.0.1.1&#x27;], &#x27;shutdown_timeout&#x27;: 5, &#x27;taskbar&#x27;: False, &#x27;with_coverage&#x27;: False, &#x27;scheduler_groups&#x27;: None, &#x27;port&#x27;: 8055, &#x27;maxthreads&#x27;: None, &#x27;softcron&#x27;: False, &#x27;server_name&#x27;: &#x27;web2py&#x27;, &#x27;bpython&#x27;: False, &#x27;nogui&#x27;: False, &#x27;pid_filename&#x27;: &#x27;httpserver.pid&#x27;, &#x27;print_errors&#x27;: False, &#x27;extcron&#x27;: False, &#x27;runcron&#x27;: False, &#x27;run_system_tests&#x27;: False, &#x27;test&#x27;: None, &#x27;folder&#x27;: &#x27;/home/python/web2pyLojinha&#x27;, &#x27;config&#x27;: &#x27;&#x27;, &#x27;minthreads&#x27;: None, &#x27;shell&#x27;: None, &#x27;run&#x27;: &#x27;&#x27;, &#x27;log_filename&#x27;: &#x27;httpserver.log&#x27;, &#x27;profiler_dir&#x27;: None, &#x27;args&#x27;: [&#x27;&#x27;], &#x27;socket_timeout&#x27;: 5, &#x27;ssl_ca_certificate&#x27;: None, &#x27;scheduler&#x27;: None, &#x27;interfaces&#x27;: None, &#x27;ssl_private_key&#x27;: &#x27;&#x27;, &#x27;gae&#x27;: None, &#x27;password&#x27;: &#x27;123&#x27;, &#x27;request_queue_size&#x27;: 5, &#x27;ssl_certificate&#x27;: &#x27;&#x27;, &#x27;cronjob&#x27;: False, &#x27;numthreads&#x27;: None, &#x27;quiet&#x27;: False, &#x27;import_models&#x27;: False, &#x27;timeout&#x27;: 10, &#x27;plain&#x27;: False, &#x27;nobanner&#x27;: False}&gt;</div></td></tr><tr><td style="font-weight:bold;vertical-align:top;">db_sessions</td><td style="vertical-align:top;">:</td><td><div>set([])</div></td></tr><tr><td style="font-weight:bold;vertical-align:top;">debugging</td><td style="vertical-align:top;">:</td><td><div>False</div></td></tr><tr><td style="font-weight:bold;vertical-align:top;">gluon_parent</td><td style="vertical-align:top;">:</td><td><div>/home/python/web2pyLojinha</div></td></tr><tr><td style="font-weight:bold;vertical-align:top;">is_jython</td><td style="vertical-align:top;">:</td><td><div>False</div></td></tr><tr><td style="font-weight:bold;vertical-align:top;">is_pypy</td><td style="vertical-align:top;">:</td><td><div>False</div></td></tr><tr><td style="font-weight:bold;vertical-align:top;">is_source</td><td style="vertical-align:top;">:</td><td><div>True</div></td></tr><tr><td style="font-weight:bold;vertical-align:top;">local_hosts</td><td style="vertical-align:top;">:</td><td><div><table><tr><td><div>127.0.1.1</div></td></tr><tr><td><div>::1</div></td></tr><tr><td><div>web2py</div></td></tr><tr><td><div>::ffff:127.0.0.1</div></td></tr><tr><td><div>127.0.0.1</div></td></tr></table></div></td></tr><tr><td style="font-weight:bold;vertical-align:top;">web2py_version</td><td style="vertical-align:top;">:</td><td><div>2.12.3-stable+timestamp.2015.08.19.00.18.03</div></td></tr></table></div></td></tr><tr><td style="font-weight:bold;vertical-align:top;">is_https</td><td style="vertical-align:top;">:</td><td><div>False</div></td></tr><tr><td style="font-weight:bold;vertical-align:top;">is_local</td><td style="vertical-align:top;">:</td><td><div>True</div></td></tr><tr><td style="font-weight:bold;vertical-align:top;">is_restful</td><td style="vertical-align:top;">:</td><td><div>False</div></td></tr><tr><td style="font-weight:bold;vertical-align:top;">is_sheduler</td><td style="vertical-align:top;">:</td><td><div>None</div></td></tr><tr><td style="font-weight:bold;vertical-align:top;">is_shell</td><td style="vertical-align:top;">:</td><td><div>None</div></td></tr><tr><td style="font-weight:bold;vertical-align:top;">now</td><td style="vertical-align:top;">:</td><td><div>datetime.datetime(2015, 10, 22, 10, 4, 14, 535436)</div></td></tr><tr><td style="font-weight:bold;vertical-align:top;">raw_args</td><td style="vertical-align:top;">:</td><td><div></div></td></tr><tr><td style="font-weight:bold;vertical-align:top;">raw_extension</td><td style="vertical-align:top;">:</td><td><div>None</div></td></tr><tr><td style="font-weight:bold;vertical-align:top;">url</td><td style="vertical-align:top;">:</td><td><div>/lojinha/caixa/historico</div></td></tr><tr><td style="font-weight:bold;vertical-align:top;">utcnow</td><td style="vertical-align:top;">:</td><td><div>datetime.datetime(2015, 10, 22, 13, 4, 14, 535485)</div></td></tr><tr><td style="font-weight:bold;vertical-align:top;">wsgi</td><td style="vertical-align:top;">:</td><td><div>&lt;gluon.main.LazyWSGI object at 0x7f0c61e53190&gt;</div></td></tr></table></div>'
tRp70
sS'frames'
p71
(lp72
(dp73
S'file'
p74
S'/home/python/web2pyLojinha/gluon/restricted.py'
p75
sS'dump'
p76
(dp77
S'code'
p78
S'"# -*- coding: utf-8 -*-\\n\\n@auth.requires_login()\\n...rn \'\'\\nresponse._vars=response._caller(historico)\\n"'
p79
sS'layer'
p80
S"'/home/python/web2pyLojinha/applications/lojinha/controllers/caixa.py'"
p81
sS'global compile2'
p82
S'<function compile2>'
p83
sS'ccode'
p84
S'undefined'
p85
ssS'lnum'
p86
I226
sS'lines'
p87
(dp88
I224
S'            ccode = code'
p89
sI225
S'        else:'
p90
sI226
S'            ccode = compile2(code, layer)'
p91
sI227
S'        exec ccode in environment'
p92
sI228
S'    except HTTP:'
p93
sI229
S'        raise'
p94
sI230
S'    except RestrictedError:'
p95
sI221
S"    environment['__name__'] = '__restricted__'"
p96
sI222
S'    try:'
p97
sI223
S'        if isinstance(code, types.CodeType):'
p98
ssS'call'
p99
S'(code="# -*- coding: utf-8 -*-\\n\\n@auth.requires_login()\\n...rn \'\'\\nresponse._vars=response._caller(historico)\\n", environment={\'A\': <class \'gluon.html.A\'>, \'ANY_OF\': <class \'gluon.validators.ANY_OF\'>, \'ASSIGNJS\': <function ASSIGNJS>, \'AppConfig\': <function AppConfig>, \'Auth\': <class \'gluon.tools.Auth\'>, \'B\': <class \'gluon.html.B\'>, \'BEAUTIFY\': <class \'gluon.html.BEAUTIFY\'>, \'BODY\': <class \'gluon.html.BODY\'>, \'BR\': <class \'gluon.html.BR\'>, \'BUTTON\': <class \'gluon.html.BUTTON\'>, ...}, layer=\'/home/python/web2pyLojinha/applications/lojinha/controllers/caixa.py\')'
p100
sS'func'
p101
S'restricted'
p102
sa(dp103
g74
S'/home/python/web2pyLojinha/gluon/restricted.py'
p104
sg76
(dp105
S'builtincompile'
p106
S'<built-in function compile>'
p107
sS'code'
p108
S'"# -*- coding: utf-8 -*-\\n\\n@auth.requires_login()\\n...rn \'\'\\nresponse._vars=response._caller(historico)\\n"'
p109
sS'code.rstrip'
p110
S'<built-in method rstrip of str object>'
p111
sS').replace'
p112
g85
sS'layer'
p113
S"'/home/python/web2pyLojinha/applications/lojinha/controllers/caixa.py'"
p114
ssg86
I209
sg87
(dp115
I204
S'def compile2(code, layer):'
p116
sI205
S'    """'
p117
sI206
S"    The ``+'\\\\n'`` is necessary else compile fails when code ends in a comment."
p118
sI207
S'    """'
p119
sI208
S''
sI209
S"    return compile(code.rstrip().replace('\\r\\n', '\\n') + '\\n', layer, 'exec')"
p120
sI210
S''
sI211
S''
sI212
S"def restricted(code, environment=None, layer='Unknown'):"
p121
sI213
S'    """'
p122
ssg99
S'(code="# -*- coding: utf-8 -*-\\n\\n@auth.requires_login()\\n...rn \'\'\\nresponse._vars=response._caller(historico)\\n", layer=\'/home/python/web2pyLojinha/applications/lojinha/controllers/caixa.py\')'
p123
sg101
S'compile2'
p124
sasS'pyver'
p125
S'Python 2.7.9: /usr/bin/python (prefix: /usr)'
p126
sS'session'
p127
g69
(S's\n\x0b\x00\x00<div><table><tr><td style="font-weight:bold;vertical-align:top;">auth</td><td style="vertical-align:top;">:</td><td><div><table><tr><td style="font-weight:bold;vertical-align:top;">expiration</td><td style="vertical-align:top;">:</td><td><div>3600</div></td></tr><tr><td style="font-weight:bold;vertical-align:top;">hmac_key</td><td style="vertical-align:top;">:</td><td><div>ec10b88a-8f91-4e5d-8e43-3034c1125f4a</div></td></tr><tr><td style="font-weight:bold;vertical-align:top;">last_visit</td><td style="vertical-align:top;">:</td><td><div>datetime.datetime(2015, 10, 22, 10, 4, 14, 535436)</div></td></tr><tr><td style="font-weight:bold;vertical-align:top;">remember_me</td><td style="vertical-align:top;">:</td><td><div>False</div></td></tr><tr><td style="font-weight:bold;vertical-align:top;">user</td><td style="vertical-align:top;">:</td><td><div><table><tr><td style="font-weight:bold;vertical-align:top;">email</td><td style="vertical-align:top;">:</td><td><div>jose.vicente.de.sousa@gmail.com</div></td></tr><tr><td style="font-weight:bold;vertical-align:top;">first_name</td><td style="vertical-align:top;">:</td><td><div>jose</div></td></tr><tr><td style="font-weight:bold;vertical-align:top;">id</td><td style="vertical-align:top;">:</td><td><div>1L</div></td></tr><tr><td style="font-weight:bold;vertical-align:top;">last_name</td><td style="vertical-align:top;">:</td><td><div>sousa</div></td></tr><tr><td style="font-weight:bold;vertical-align:top;">registration_id</td><td style="vertical-align:top;">:</td><td><div></div></td></tr><tr><td style="font-weight:bold;vertical-align:top;">registration_key</td><td style="vertical-align:top;">:</td><td><div></div></td></tr><tr><td style="font-weight:bold;vertical-align:top;">reset_password_key</td><td style="vertical-align:top;">:</td><td><div></div></td></tr></table></div></td></tr><tr><td style="font-weight:bold;vertical-align:top;">user_groups</td><td style="vertical-align:top;">:</td><td><div><table><tr><td style="font-weight:bold;vertical-align:top;">1</td><td style="vertical-align:top;">:</td><td><div>user_1</div></td></tr><tr><td style="font-weight:bold;vertical-align:top;">2</td><td style="vertical-align:top;">:</td><td><div>admin</div></td></tr></table></div></td></tr></table></div></td></tr><tr><td style="font-weight:bold;vertical-align:top;">flash</td><td style="vertical-align:top;">:</td><td><div>None</div></td></tr><tr><td style="font-weight:bold;vertical-align:top;">venda</td><td style="vertical-align:top;">:</td><td><div><table><tr><td style="font-weight:bold;vertical-align:top;">itens</td><td style="vertical-align:top;">:</td><td><div><div></div></div></td></tr><tr><td style="font-weight:bold;vertical-align:top;">sTotal</td><td style="vertical-align:top;">:</td><td><div>0</div></td></tr></table></div></td></tr></table></div>'
tRp128
sS'etype'
p129
S"<type 'exceptions.IndentationError'>"
p130
sS'date'
p131
S'Thu Oct 22 10:04:14 2015'
p132
sS'response'
p133
g69
(S's\x05!\x00\x00<div><table><tr><td style="font-weight:bold;vertical-align:top;">body</td><td style="vertical-align:top;">:</td><td><div>&lt;cStringIO.StringO object at 0x7f0c61fc4b58&gt;</div></td></tr><tr><td style="font-weight:bold;vertical-align:top;">cookies</td><td style="vertical-align:top;">:</td><td><div><table><tr><td style="font-weight:bold;vertical-align:top;">session_id_lojinha</td><td style="vertical-align:top;">:</td><td><div>127.0.0.1-558bcae4-9a83-4c11-968d-fef8ed0cc12a<table><tr><td style="font-weight:bold;vertical-align:top;">comment</td><td style="vertical-align:top;">:</td><td><div></div></td></tr><tr><td style="font-weight:bold;vertical-align:top;">domain</td><td style="vertical-align:top;">:</td><td><div></div></td></tr><tr><td style="font-weight:bold;vertical-align:top;">expires</td><td style="vertical-align:top;">:</td><td><div></div></td></tr><tr><td style="font-weight:bold;vertical-align:top;">httponly</td><td style="vertical-align:top;">:</td><td><div></div></td></tr><tr><td style="font-weight:bold;vertical-align:top;">max-age</td><td style="vertical-align:top;">:</td><td><div></div></td></tr><tr><td style="font-weight:bold;vertical-align:top;">path</td><td style="vertical-align:top;">:</td><td><div>/</div></td></tr><tr><td style="font-weight:bold;vertical-align:top;">secure</td><td style="vertical-align:top;">:</td><td><div></div></td></tr><tr><td style="font-weight:bold;vertical-align:top;">version</td><td style="vertical-align:top;">:</td><td><div></div></td></tr></table></div></td></tr></table></div></td></tr><tr><td style="font-weight:bold;vertical-align:top;">delimiters</td><td style="vertical-align:top;">:</td><td><div><table><tr><td><div>{{</div></td></tr><tr><td><div>}}</div></td></tr></table></div></td></tr><tr><td style="font-weight:bold;vertical-align:top;">files</td><td style="vertical-align:top;">:</td><td><div><table></table></div></td></tr><tr><td style="font-weight:bold;vertical-align:top;">flash</td><td style="vertical-align:top;">:</td><td><div></div></td></tr><tr><td style="font-weight:bold;vertical-align:top;">form_label_separator</td><td style="vertical-align:top;">:</td><td><div></div></td></tr><tr><td style="font-weight:bold;vertical-align:top;">formstyle</td><td style="vertical-align:top;">:</td><td><div>bootstrap3_inline</div></td></tr><tr><td style="font-weight:bold;vertical-align:top;">generic_patterns</td><td style="vertical-align:top;">:</td><td><div><table><tr><td><div>*</div></td></tr></table></div></td></tr><tr><td style="font-weight:bold;vertical-align:top;">google_analytics_id</td><td style="vertical-align:top;">:</td><td><div>None</div></td></tr><tr><td style="font-weight:bold;vertical-align:top;">headers</td><td style="vertical-align:top;">:</td><td><div><table><tr><td style="font-weight:bold;vertical-align:top;">X-Powered-By</td><td style="vertical-align:top;">:</td><td><div>web2py</div></td></tr></table></div></td></tr><tr><td style="font-weight:bold;vertical-align:top;">logo</td><td style="vertical-align:top;">:</td><td><div><img class="navbar-brand" id="logo-lojinha" src="/lojinha/static/images/logo-lojinha.png" /></div></td></tr><tr><td style="font-weight:bold;vertical-align:top;">menu</td><td style="vertical-align:top;">:</td><td><div><table><tr><td><div><table><tr><td><div>Caixa</div></td></tr><tr><td><div>False</div></td></tr><tr><td><div>None</div></td></tr><tr><td><div><table><tr><td><div><table><tr><td><div>Caixa</div></td></tr><tr><td><div>False</div></td></tr><tr><td><div>/lojinha/caixa/cliente?menu=caixa</div></td></tr><tr><td><div>[]</div></td></tr></table></div></td></tr><tr><td><div><table><tr><td><div>historico</div></td></tr><tr><td><div>False</div></td></tr><tr><td><div>/lojinha/caixa/historico?menu=caixa</div></td></tr><tr><td><div>[]</div></td></tr></table></div></td></tr></table></div></td></tr></table></div></td></tr><tr><td><div><table><tr><td><div>Clientes</div></td></tr><tr><td><div>False</div></td></tr><tr><td><div>/lojinha/clientes/listarClientes?menu=clientes</div></td></tr><tr><td><div><table></table></div></td></tr></table></div></td></tr><tr><td><div><table><tr><td><div>Produtos</div></td></tr><tr><td><div>False</div></td></tr><tr><td><div>/lojinha/produtos/listarProdutos?menu=produtos</div></td></tr><tr><td><div><table></table></div></td></tr></table></div></td></tr></table></div></td></tr><tr><td style="font-weight:bold;vertical-align:top;">meta</td><td style="vertical-align:top;">:</td><td><div><table><tr><td style="font-weight:bold;vertical-align:top;">author</td><td style="vertical-align:top;">:</td><td><div>Your Name &lt;you@example.com&gt;</div></td></tr><tr><td style="font-weight:bold;vertical-align:top;">description</td><td style="vertical-align:top;">:</td><td><div>a cool new app</div></td></tr><tr><td style="font-weight:bold;vertical-align:top;">generator</td><td style="vertical-align:top;">:</td><td><div>Web2py Web Framework</div></td></tr><tr><td style="font-weight:bold;vertical-align:top;">keywords</td><td style="vertical-align:top;">:</td><td><div>web2py, python, framework</div></td></tr></table></div></td></tr><tr><td style="font-weight:bold;vertical-align:top;">models_to_run</td><td style="vertical-align:top;">:</td><td><div><table><tr><td><div>^\\w+\\.py$</div></td></tr><tr><td><div>^caixa/\\w+\\.py$</div></td></tr><tr><td><div>^caixa/historico/\\w+\\.py$</div></td></tr></table></div></td></tr><tr><td style="font-weight:bold;vertical-align:top;">postprocessing</td><td style="vertical-align:top;">:</td><td><div><table></table></div></td></tr><tr><td style="font-weight:bold;vertical-align:top;">session_client</td><td style="vertical-align:top;">:</td><td><div>127.0.0.1</div></td></tr><tr><td style="font-weight:bold;vertical-align:top;">session_cookie_compression_level</td><td style="vertical-align:top;">:</td><td><div>None</div></td></tr><tr><td style="font-weight:bold;vertical-align:top;">session_cookie_expires</td><td style="vertical-align:top;">:</td><td><div>None</div></td></tr><tr><td style="font-weight:bold;vertical-align:top;">session_cookie_key</td><td style="vertical-align:top;">:</td><td><div>None</div></td></tr><tr><td style="font-weight:bold;vertical-align:top;">session_data_name</td><td style="vertical-align:top;">:</td><td><div>session_data_lojinha</div></td></tr><tr><td style="font-weight:bold;vertical-align:top;">session_file</td><td style="vertical-align:top;">:</td><td><div>&lt;open file &#x27;/home/python/web2pyLojinha/applications/lojinha/sessions/191/11d/127.0.0.1-558bcae4-9a83-4c11-968d-fef8ed0cc12a&#x27;, mode &#x27;rb+&#x27; at 0x7f0c61f17a50&gt;</div></td></tr><tr><td style="font-weight:bold;vertical-align:top;">session_filename</td><td style="vertical-align:top;">:</td><td><div>/home/python/web2pyLojinha/applications/lojinha/sessions/127.0.0.1-558bcae4-9a83-4c11-968d-fef8ed0cc12a</div></td></tr><tr><td style="font-weight:bold;vertical-align:top;">session_hash</td><td style="vertical-align:top;">:</td><td><div>21ee61525585002c0901fcaa7531fdfd</div></td></tr><tr><td style="font-weight:bold;vertical-align:top;">session_id</td><td style="vertical-align:top;">:</td><td><div>127.0.0.1-558bcae4-9a83-4c11-968d-fef8ed0cc12a</div></td></tr><tr><td style="font-weight:bold;vertical-align:top;">session_id_name</td><td style="vertical-align:top;">:</td><td><div>session_id_lojinha</div></td></tr><tr><td style="font-weight:bold;vertical-align:top;">session_locked</td><td style="vertical-align:top;">:</td><td><div>True</div></td></tr><tr><td style="font-weight:bold;vertical-align:top;">session_masterapp</td><td style="vertical-align:top;">:</td><td><div>lojinha</div></td></tr><tr><td style="font-weight:bold;vertical-align:top;">session_new</td><td style="vertical-align:top;">:</td><td><div>False</div></td></tr><tr><td style="font-weight:bold;vertical-align:top;">session_storage_type</td><td style="vertical-align:top;">:</td><td><div>file</div></td></tr><tr><td style="font-weight:bold;vertical-align:top;">status</td><td style="vertical-align:top;">:</td><td><div>200</div></td></tr><tr><td style="font-weight:bold;vertical-align:top;">subtitle</td><td style="vertical-align:top;">:</td><td><div></div></td></tr><tr><td style="font-weight:bold;vertical-align:top;">title</td><td style="vertical-align:top;">:</td><td><div>Lojinha</div></td></tr><tr><td style="font-weight:bold;vertical-align:top;">view</td><td style="vertical-align:top;">:</td><td><div>caixa/historico.html</div></td></tr></table></div>'
tRp134
sS'locals'
p135
(dp136
g4
S"'/home/python/web2pyLojinha/applications/lojinha/controllers/caixa.py'"
p137
sg6
S'"# -*- coding: utf-8 -*-\\n\\n@auth.requires_login()\\n...rn \'\'\\nresponse._vars=response._caller(historico)\\n"'
p138
sssS'traceback'
p139
S'Traceback (most recent call last):\n  File "/home/python/web2pyLojinha/gluon/restricted.py", line 226, in restricted\n    ccode = compile2(code, layer)\n  File "/home/python/web2pyLojinha/gluon/restricted.py", line 209, in compile2\n    return compile(code.rstrip().replace(\'\\r\\n\', \'\\n\') + \'\\n\', layer, \'exec\')\n  File "/home/python/web2pyLojinha/applications/lojinha/controllers/caixa.py", line 290\n    crud.delete(db.historicoVendas, idd)\n                                       ^\nIndentationError: unindent does not match any outer indentation level\n'
p140
s.