(dp1
S'output'
p2
S"<type 'exceptions.AttributeError'> "
p3
sS'layer'
p4
S'/home/python/web2pyLojinha/applications/lojinha/views/produtos/listarProdutos.html'
p5
sS'code'
p6
S'response.write(\'<!DOCTYPE html>\\n<!--[if (gt IE 9)|!(IE)]><!--> <html class="no-js" lang="\', escape=False)\nresponse.write(T.accepted_language or \'en\')\nresponse.write(\'"> <!--<![endif]-->\\n  <head>\\n    <meta charset="utf-8">\\n    <!-- www.phpied.com/conditional-comments-block-downloads/ -->\\n    <!-- Always force latest IE rendering engine\\n         (even in intranet) & Chrome Frame\\n         Remove this if you use the .htaccess -->\\n    <meta http-equiv="X-UA-Compatible" content="IE=edge\', escape=False)\nresponse.write(not request.is_local and \',chrome=1\' or \'\')\nresponse.write(\'">\\n    <!--  Mobile Viewport Fix\\n          j.mp/mobileviewport & davidbcalhoun.com/2010/viewport-metatag\\n          device-width: Occupy full width of the screen in its current orientation\\n          initial-scale = 1.0 retains dimensions instead of zooming out if page height > device height\\n          user-scalable = yes allows the user to zoom in -->\\n    <meta name="viewport" content="width=device-width, initial-scale=1.0">\\n    <title>\', escape=False)\nresponse.write(response.title or request.application)\nresponse.write(\'</title>\\n    <!-- http://dev.w3.org/html5/markup/meta.name.html -->\\n    <meta name="application-name" content="\', escape=False)\nresponse.write(request.application)\nresponse.write(\'">\\n    <!-- Speaking of Google, don\\\'t forget to set your site up:\\n         http://google.com/webmasters -->\\n    <meta name="google-site-verification" content="">\\n    <!-- include stylesheets -->\\n\\n\\n    <link rel="stylesheet" href="\', escape=False)\nresponse.write(URL(\'static\',\'datatable/css/jquery.dataTables.min.css\'))\nresponse.write(\'"/>\\n    <link rel="stylesheet" href="\', escape=False)\nresponse.write(URL(\'static\',\'css/animate.css\'))\nresponse.write(\'"/>\\n    <link rel="stylesheet" href="\', escape=False)\nresponse.write(URL(\'static\',\'css/home.css\'))\nresponse.write(\'"/>\\n    \\n    <link rel="stylesheet" href="\', escape=False)\nresponse.write(URL(\'static\',\'css/bootstrap.min.css\'))\nresponse.write(\'"/>\\n    <link rel="stylesheet" href="\', escape=False)\nresponse.write(URL(\'static\',\'css/bootstrap-theme.min.css\'))\nresponse.write(\'"/>\\n    <link rel="stylesheet" href="\', escape=False)\nresponse.write(URL(\'static\',\'css/web2py-bootstrap3.css\'))\nresponse.write(\'"/>\\n    <link rel="shortcut icon" href="\', escape=False)\nresponse.write(URL(\'static\',\'images/favicon.ico\'))\nresponse.write(\'" type="image/x-icon">\\n    <link rel="apple-touch-icon" href="\', escape=False)\nresponse.write(URL(\'static\',\'images/favicon.png\'))\nresponse.write(\'">\\n    <!-- All JavaScript at the bottom, except for Modernizr which enables\\n         HTML5 elements & feature detects -->\\n    <script src="\', escape=False)\nresponse.write(URL(\'static\',\'js/modernizr-2.8.3.min.js\'))\nresponse.write(\'"></script>\\n    <script src="\', escape=False)\nresponse.write(URL(\'static\',\'js/jquery.js\'))\nresponse.write(\'"></script>\\n    <script>\\n    $(document).ready(function(){  \\n      \', escape=False)\nif request.vars.menu == "caixa":\n    response.write(\'\\n        $("#navHeader li:nth-child(2)").addClass("ativo")\\n      \', escape=False)\nelif request.vars.menu == "clientes":\n    response.write(\'  \\n        $("#navHeader li:nth-child(3)").addClass("ativo")\\n      \', escape=False)\nelif request.vars.menu == "produtos":\n    response.write(\'  \\n        $("#navHeader li:nth-child(4)").addClass("ativo")\\n      \', escape=False)\n    pass\nresponse.write(\'\\n    })\\n    </script>\\n    <!--[if lt IE 9]>\\n        <script src="\', escape=False)\nresponse.write(URL(\'static\',\'js/respond-1.4.2.min.js\'))\nresponse.write(\'"></script>\\n        <![endif]-->\\n    <!-- Favicons -->\\n    \', escape=False)\nresponse.write(\'<script type="text/javascript"><!--\\n    // These variables are used by the web2py_ajax_init function in web2py_ajax.js (which is loaded below).\\n    var w2p_ajax_confirm_message = "\', escape=False)\nresponse.write(T(\'Are you sure you want to delete this object?\'))\nresponse.write(\'";\\n    var w2p_ajax_disable_with_message = "\', escape=False)\nresponse.write(T(\'Working...\'))\nresponse.write(\'";\\n    var w2p_ajax_date_format = "\', escape=False)\nresponse.write(T(\'%Y-%m-%d\'))\nresponse.write(\'";\\n    var w2p_ajax_datetime_format = "\', escape=False)\nresponse.write(T(\'%Y-%m-%d %H:%M:%S\'))\nresponse.write(\'";\\n    var ajax_error_500 = \\\'\', escape=False)\nresponse.write(T.M(\'An error occured, please [[reload %s]] the page\') % URL(args=request.args, vars=request.get_vars))\nresponse.write("\'\\n    //--></script>\\n", escape=False)\nresponse.files.insert(0,URL(\'static\',\'js/jquery.js\'))\nresponse.files.insert(1,URL(\'static\',\'css/calendar.css\'))\nresponse.files.insert(2,URL(\'static\',\'js/calendar.js\'))\nresponse.files.insert(3,URL(\'static\',\'js/web2py.js\'))\nresponse.include_meta()\nresponse.include_files()\nresponse.write(\'\\n\', escape=False)\nresponse.write(\' <!-- this includes jquery.js, calendar.js/.css and web2py.js -->\\n    \', escape=False)\nresponse.write(\'\\n    \', escape=False)\n# using sidebars need to know what sidebar you want to use\nmc0 = \'col-md-12\'\nmc1 = \'col-md-9\'\nmc2 = \'col-md-6\'\nleft_sidebar_enabled = globals().get(\'left_sidebar_enabled\', False)\nright_sidebar_enabled = globals().get(\'right_sidebar_enabled\', False)\nmiddle_column = {0: mc0, 1: mc1, 2: mc2}[\n(left_sidebar_enabled and 1 or 0)+(right_sidebar_enabled and 1 or 0)]\nresponse.write(\'\\n  </head>\\n  <body>\\n  \\n    <!--[if lt IE 8]><p class="browserupgrade">You are using an <strong>outdated</strong> browser. Please <a href="http://browsehappy.com/">upgrade your browser</a> to improve your experience.</p><![endif]-->\\n    <div class="flash alert alert-dismissable">\', escape=False)\nresponse.write(response.flash or \'\')\nresponse.write(\'</div>\\n    \\n    <!-- Navbar ======================================= -->\\n    <nav id="nav_home" class="lojinha_cor" >\\n      <div class="container">\\n        \', escape=False)\nresponse.write(response.logo or \'\')\nresponse.write(\'\\n        <ul class="nav navbar-nav navbar-right">\\n          \', escape=False)\nresponse.write(\'auth\' in globals() and auth.navbar(\'Welcome\',mode=\'dropdown\') or \'\')\nresponse.write(\'\\n        </ul>\\n        \', escape=False)\nif response.menu:\n    response.write(\'\\n        \', escape=False)\n    response.write(MENU(response.menu, _class=\'nav navbar-nav\',_id=\'navHeader\',li_class=\'dropdown\',ul_class=\'dropdown-menu\'))\n    response.write(\'\\n        \', escape=False)\n    pass\nresponse.write(\'\\n      </div>  \\n    </nav>  \\n\\n    <!-- Masthead ===================================== -->    \\n    \', escape=False)\nresponse.write(\'\\n    \', escape=False)\nresponse.write(\'\\n    <!-- Main ========================================= -->\\n    <!-- Begin page content -->\\n    <div class="container-fluid main-container">\\n      \', escape=False)\nif left_sidebar_enabled:\n    response.write(\'\\n        <div class="col-md-3 left-sidebar">\\n            \', escape=False)\n    response.write(\'\\n            <h3>Left Sidebar</h3>\\n            <p></p>\\n            \', escape=False)\n    response.write(\'\\n        </div>\\n      \', escape=False)\n    pass\nresponse.write(\'\\n\\n      <div class=" container animated fadeIn ">\\n        \', escape=False)\nresponse.write(\'\\n        \', escape=False)\nresponse.write(\'\\n\\n<script>\\n\\t$(document).ready(function(){\\n            // $(\\\'#minhaTabela table\\\').attr(\\\'id\\\', \\\'dataTable\\\').addClass(\\\'display\\\');\\n            $(\\\'#dataTable\\\').DataTable({\\n\\t            "scrollX": true,\\n\\t            "language": {\\n\\t              "url": "\', escape=False)\nresponse.write(URL(\'static\',\'js/tradutorTable.json\'))\nresponse.write(\'"\\n\\t            } \\n\\t\\t    });\\n\\t\\t    $(\\\'.fechar\\\').on(\\\'click\\\',function(){\\n\\t\\t    \\t\\n\\t\\t    \\t\\tvar td = $(this).parent().parent().parent().children()[0];\\n\\t\\t    \\t\\tvar x = td.textContent;\\n\\t\\t    \\t\\tvar c = confirm("Deseja mesmo apagar?");\\n\\t\\t    \\t\\tif (c == true) {\\n\\t\\t    \\t\\t\\t//--\\n\\t\\t    \\t\\t\\t$("input[name=cod]").val(x);\\n\\t\\t    \\t\\t\\tajax(\\\'deletar\\\',[\\\'cod\\\']); //chamar a funcao para apagar no banco\\n\\t\\t    \\t\\t\\t// $(this).parent().parent().parent().hide(400) //esconder a \\n\\t\\t    \\t\\t\\tlocation.reload();\\n\\t\\t    \\t\\t}else{\\n\\t\\t    \\t\\t\\tconsole.log("Nao apagado")\\n\\t\\t    \\t\\t};\\n\\t\\t    })\\n\\t})\\n\\n</script>\\n<style type="text/css">\\n/*\\ttd#opcoes {width: 201px;}\\n\\ttd#opcoes div{float: right;}\\n\\ttd#opcoes div button{margin-right: 0px !important}\\n\\t.idS {display:none !important;}\\n*/\\t.JpositionA{float: right;}\\n\\t.JpositionA a{margin-right: 0px !important}\\n\\n\\n</style>\\n\\n\\n<div id="minhaTabela" class="container">\\n\\n\', escape=False)\nif auth.has_membership(\'admin\'):\n    response.write(\'\\n\\t<a class="btn btn-default" href="/lojinha/produtos/cadastrarProdutos?menu=produtos"><span class="glyphicon glyphicon-plus"></span> Novo Produto</a>\\n\', escape=False)\nelse:\n    response.write(\'\\n\\t<a class="btn btn-default" disabled="disabled" href="#"><span class="glyphicon glyphicon-plus"></span> Novo produto</a>\\n\', escape=False)\n    pass\nresponse.write(\'\\n\\n\\n<hr>\\n<table id="dataTable" class="table table-striped hover" cellspacing="0" width="100%" >\\n<thead>\\n\\t<tr>\\n\\t\\t<th>Codigo da pe\\xc3\\xa7a</th>\\n\\t\\t<th>Nome do produto</th>\\n\\t\\t<th>Pre\\xc3\\xa7o</th>\\n\\t\\t<th></th>\\n\\t</tr> \\n\\t<tbody>\\n\\t\\t\', escape=False)\nfor produto in formListar:\n    response.write(\'\\n\\t\\t\\t<tr>\\n\\t\\t\\t\\t<td>\', escape=False)\n    response.write(produto.produtos.codigo_produto)\n    response.write(\'</td>\\n\\t\\t\\t\\t<td>\', escape=False)\n    response.write(produto.produtos.nome_produto)\n    response.write(\'</td>\\n\\t\\t\\t\\t<td>R$\', escape=False)\n    response.write(" %.2f"% float(produto.preco_produto_lojinha))\n    response.write(\'</td>\\n\\t\\t\\t\\t<td class="opcoes">\', escape=False)\n    response.write(produto.campos_virtual.botoes)\n    response.write(\'</td>\\n\\t\\t\\t</tr>\\n\\t\\t\', escape=False)\n    pass\nresponse.write(\'\\t\\t\\n\\t</tbody>\\n</thead>\\n</table>\\n\\n</div>\', escape=False)\nresponse.write(\'\\n        \', escape=False)\nresponse.write(\'\\n      </div>\\n\\n      \', escape=False)\nif right_sidebar_enabled:\n    response.write(\'\\n        <div class="col-md-3">\\n            \', escape=False)\n    response.write(\'\\n            <h3>Right Sidebar</h3>\\n            <p></p>\\n            \', escape=False)\n    response.write(\'\\n        </div>\\n      \', escape=False)\n    pass\nresponse.write(\'\\n\\n    </div>\\n\\n    \', escape=False)\nresponse.write(\' <!-- this is default footer -->      \\n    <footer class="footer lojinha_cor footer_lojinha">\\n      <div class="container">\\n        <div class="copyright pull-left">\', escape=False)\nresponse.write(T(\'Copyright\'))\nresponse.write(\' &#169; \', escape=False)\nresponse.write(request.now.year)\nresponse.write(\'</div>\\n          <div id="poweredBy" class="pull-right">\\n            \', escape=False)\nresponse.write(T(\'Powered by\'))\nresponse.write(\'\\n            <a href="http://www.web2py.com/">web2py</a>\\n          </div>\\n      </div>\\n    </footer>\\n    \', escape=False)\nresponse.write(\'\\n    <!-- The javascript =============================== -->\\n\\n\\n    <script src="\', escape=False)\nresponse.write(URL(\'static\',\'datatable/js/jquery.dataTables.min.js\'))\nresponse.write(\'"></script>\\n\\n\\n    <script src="\', escape=False)\nresponse.write(URL(\'static\',\'js/bootstrap.min.js\'))\nresponse.write(\'"></script>\\n    <script src="\', escape=False)\nresponse.write(URL(\'static\',\'js/web2py-bootstrap3.js\'))\nresponse.write(\'"></script>\\n    <script src="\', escape=False)\nresponse.write(URL(\'static\',\'js/jquery.maskMoney.js\'))\nresponse.write(\'"></script>\\n    <script src="\', escape=False)\nresponse.write(URL(\'static\',\'js/jquery.mask.js\'))\nresponse.write(\'"></script>\\n    \', escape=False)\nresponse.write(\'\\n    \', escape=False)\nif response.google_analytics_id:\n    response.write(\'\\n    <!-- Analytics ==================================== -->\\n    <script src="\', escape=False)\n    response.write(URL(\'static\',\'js/analytics.min.js\'))\n    response.write(\'"></script>\\n    <script type="text/javascript">\\n      analytics.initialize({\\n      \\\'Google Analytics\\\':{trackingId:\\\'\', escape=False)\n    response.write(response.google_analytics_id)\n    response.write("\'}\\n      });\\n    </script>\\n    ", escape=False)\n    pass\nresponse.write(\'\\n    <!-- Share ============================y============ -->\\n    <script src="\', escape=False)\nresponse.write(URL(\'static\',\'js/share.js\',vars=dict(static=URL(\'static\',\'images\'))))\nresponse.write(\'"></script>\\n  </body>\\n</html>\\n\', escape=False)'
p7
sS'snapshot'
p8
(dp9
sS'traceback'
p10
S'Traceback (most recent call last):\n  File "/home/python/web2pyLojinha/gluon/restricted.py", line 227, in restricted\n    exec ccode in environment\n  File "/home/python/web2pyLojinha/applications/lojinha/views/produtos/listarProdutos.html", line 105, in <module>\n  File "/home/python/web2pyLojinha/gluon/packages/dal/pydal/objects.py", line 90, in __getattr__\n    raise AttributeError\nAttributeError\n'
p11
s.